target datalayout = "e-m:e-p270:32:32-p271:32:32-p272:64:64-i64:64-i128:128-f80:128-n8:16:32:64-S128"
target triple = "x86_64-pc-linux-gnu"

%struct._packet_info = type { ptr, ptr, i32, i32, %struct.nstime_t, %struct.nstime_t, %struct.nstime_t, i8, ptr, ptr, ptr, ptr, %struct._address, %struct._address, %struct._address, %struct._address, %struct._address, %struct._address, i32, ptr, i8, [3 x i8], %struct.anon, i32, i32, i32, i32, ptr, i8, ptr, ptr, i16, i16, i32, i32, i16, i32, i32, ptr, ptr, ptr, i8, i8, i16, i16, i16, i32, i16, i16, ptr, ptr, ptr, ptr, ptr, i32, i32 }
%struct.nstime_t = type { i64, i32 }
%struct._address = type { i32, i32, ptr, ptr }
%struct.anon = type { i8, [3 x i8] }

@sigcomp_handle = internal global ptr null, align 8
@g_ascii_table = external constant ptr, align 8

; Function Attrs: null_pointer_is_valid sspstrong uwtable
define internal i32 @dissect_sip_tcp(ptr noundef %0, ptr noundef %1, ptr noundef %2, ptr noundef %3) #0 {
  %5 = alloca i32, align 4
  %6 = alloca ptr, align 8
  %7 = alloca ptr, align 8
  %8 = alloca ptr, align 8
  %9 = alloca ptr, align 8
  %10 = alloca i8, align 1
  %11 = alloca i32, align 4
  %12 = alloca i32, align 4
  %13 = alloca i32, align 4
  %14 = alloca i32, align 4
  %15 = alloca i32, align 4
  store ptr %0, ptr %6, align 8
  store ptr %1, ptr %7, align 8
  store ptr %2, ptr %8, align 8
  store ptr %3, ptr %9, align 8
  call void @llvm.lifetime.start.p0(i64 1, ptr %10) #18
  call void @llvm.lifetime.start.p0(i64 4, ptr %11) #18
  store i32 0, ptr %11, align 4
  call void @llvm.lifetime.start.p0(i64 4, ptr %12) #18
  call void @llvm.lifetime.start.p0(i64 4, ptr %13) #18
  call void @llvm.lifetime.start.p0(i64 4, ptr %14) #18
  %16 = load ptr, ptr %6, align 8
  %17 = call zeroext i8 @tvb_get_uint8(ptr noundef %16, i32 noundef 0)
  store i8 %17, ptr %10, align 1
  %18 = load i8, ptr %10, align 1
  %19 = zext i8 %18 to i32
  %20 = and i32 %19, 248
  %21 = icmp eq i32 %20, 248
  br i1 %21, label %22, label %30

22:                                               ; preds = %4
  %23 = load ptr, ptr @sigcomp_handle, align 8
  %24 = load ptr, ptr %6, align 8
  %25 = load ptr, ptr %7, align 8
  %26 = load ptr, ptr %8, align 8
  %27 = call i32 @call_dissector(ptr noundef %23, ptr noundef %24, ptr noundef %25, ptr noundef %26)
  %28 = load ptr, ptr %6, align 8
  %29 = call i32 @tvb_reported_length(ptr noundef %28)
  store i32 %29, ptr %5, align 4
  store i32 1, ptr %15, align 4
  br label %120

30:                                               ; preds = %4
  %31 = load ptr, ptr %6, align 8
  %32 = call i32 @tvb_reported_length(ptr noundef %31)
  store i32 %32, ptr %14, align 4
  %33 = load i32, ptr %14, align 4
  %34 = icmp eq i32 %33, 1
  br i1 %34, label %35, label %45

35:                                               ; preds = %30
  %36 = load ptr, ptr @g_ascii_table, align 8
  %37 = load i8, ptr %10, align 1
  %38 = zext i8 %37 to i64
  %39 = getelementptr i16, ptr %36, i64 %38
  %40 = load i16, ptr %39, align 2
  %41 = zext i16 %40 to i32
  %42 = and i32 %41, 64
  %43 = icmp ne i32 %42, 0
  br i1 %43, label %45, label %44

44:                                               ; preds = %35
  store i32 0, ptr %5, align 4
  store i32 1, ptr %15, align 4
  br label %120

45:                                               ; preds = %35, %30
  %46 = load i32, ptr %14, align 4
  %47 = icmp slt i32 %46, 1500
  br i1 %47, label %48, label %62

48:                                               ; preds = %45
  %49 = load ptr, ptr %6, align 8
  %50 = load i32, ptr %11, align 4
  %51 = load i32, ptr %14, align 4
  %52 = call i32 @tvb_find_line_end(ptr noundef %49, i32 noundef %50, i32 noundef %51, ptr noundef null, i1 noundef zeroext true)
  store i32 %52, ptr %12, align 4
  %53 = load i32, ptr %12, align 4
  %54 = icmp eq i32 %53, -1
  br i1 %54, label %55, label %61

55:                                               ; preds = %48
  %56 = load i32, ptr %11, align 4
  %57 = load ptr, ptr %7, align 8
  %58 = getelementptr inbounds nuw %struct._packet_info, ptr %57, i32 0, i32 33
  store i32 %56, ptr %58, align 4
  %59 = load ptr, ptr %7, align 8
  %60 = getelementptr inbounds nuw %struct._packet_info, ptr %59, i32 0, i32 34
  store i32 268435455, ptr %60, align 8
  store i32 -1, ptr %5, align 4
  store i32 1, ptr %15, align 4
  br label %120

61:                                               ; preds = %48
  br label %62

62:                                               ; preds = %61, %45
  %63 = load ptr, ptr %6, align 8
  %64 = load i32, ptr %11, align 4
  %65 = load i32, ptr %14, align 4
  %66 = load ptr, ptr %7, align 8
  %67 = load ptr, ptr %8, align 8
  %68 = call i32 @dissect_sip_common(ptr noundef %63, i32 noundef %64, i32 noundef %65, ptr noundef %66, ptr noundef %67, i1 noundef zeroext true, i1 noundef zeroext true)
  store i32 %68, ptr %13, align 4
  %69 = load i32, ptr %13, align 4
  %70 = icmp sle i32 %69, 0
  br i1 %70, label %71, label %73

71:                                               ; preds = %62
  %72 = load i32, ptr %13, align 4
  store i32 %72, ptr %5, align 4
  store i32 1, ptr %15, align 4
  br label %120

73:                                               ; preds = %62
  %74 = load i32, ptr %13, align 4
  %75 = load i32, ptr %11, align 4
  %76 = add i32 %75, %74
  store i32 %76, ptr %11, align 4
  %77 = load i32, ptr %14, align 4
  %78 = load i32, ptr %13, align 4
  %79 = sub i32 %77, %78
  store i32 %79, ptr %14, align 4
  br label %80

80:                                               ; preds = %111, %73
  %81 = load i32, ptr %14, align 4
  %82 = icmp sgt i32 %81, 0
  br i1 %82, label %83, label %118

83:                                               ; preds = %80
  %84 = load i32, ptr %14, align 4
  %85 = icmp slt i32 %84, 1500
  br i1 %85, label %86, label %100

86:                                               ; preds = %83
  %87 = load ptr, ptr %6, align 8
  %88 = load i32, ptr %11, align 4
  %89 = load i32, ptr %14, align 4
  %90 = call i32 @tvb_find_line_end(ptr noundef %87, i32 noundef %88, i32 noundef %89, ptr noundef null, i1 noundef zeroext true)
  store i32 %90, ptr %12, align 4
  %91 = load i32, ptr %12, align 4
  %92 = icmp eq i32 %91, -1
  br i1 %92, label %93, label %99

93:                                               ; preds = %86
  %94 = load i32, ptr %11, align 4
  %95 = load ptr, ptr %7, align 8
  %96 = getelementptr inbounds nuw %struct._packet_info, ptr %95, i32 0, i32 33
  store i32 %94, ptr %96, align 4
  %97 = load ptr, ptr %7, align 8
  %98 = getelementptr inbounds nuw %struct._packet_info, ptr %97, i32 0, i32 34
  store i32 268435455, ptr %98, align 8
  store i32 -1, ptr %5, align 4
  store i32 1, ptr %15, align 4
  br label %120

99:                                               ; preds = %86
  br label %100

100:                                              ; preds = %99, %83
  %101 = load ptr, ptr %6, align 8
  %102 = load i32, ptr %11, align 4
  %103 = load i32, ptr %14, align 4
  %104 = load ptr, ptr %7, align 8
  %105 = load ptr, ptr %8, align 8
  %106 = call i32 @dissect_sip_common(ptr noundef %101, i32 noundef %102, i32 noundef %103, ptr noundef %104, ptr noundef %105, i1 noundef zeroext true, i1 noundef zeroext true)
  store i32 %106, ptr %13, align 4
  %107 = load i32, ptr %13, align 4
  %108 = icmp sle i32 %107, 0
  br i1 %108, label %109, label %111

109:                                              ; preds = %100
  %110 = load i32, ptr %13, align 4
  store i32 %110, ptr %5, align 4
  store i32 1, ptr %15, align 4
  br label %120

111:                                              ; preds = %100
  %112 = load i32, ptr %13, align 4
  %113 = load i32, ptr %11, align 4
  %114 = add i32 %113, %112
  store i32 %114, ptr %11, align 4
  %115 = load i32, ptr %14, align 4
  %116 = load i32, ptr %13, align 4
  %117 = sub i32 %115, %116
  store i32 %117, ptr %14, align 4
  br label %80, !llvm.loop !15

118:                                              ; preds = %80
  %119 = load i32, ptr %11, align 4
  store i32 %119, ptr %5, align 4
  store i32 1, ptr %15, align 4
  br label %120

120:                                              ; preds = %118, %109, %93, %71, %55, %44, %22
  call void @llvm.lifetime.end.p0(i64 4, ptr %14) #18
  call void @llvm.lifetime.end.p0(i64 4, ptr %13) #18
  call void @llvm.lifetime.end.p0(i64 4, ptr %12) #18
  call void @llvm.lifetime.end.p0(i64 4, ptr %11) #18
  call void @llvm.lifetime.end.p0(i64 1, ptr %10) #18
  %121 = load i32, ptr %5, align 4
  ret i32 %121
}