; Function Attrs: null_pointer_is_valid sspstrong uwtable
define internal i32 @dissect_sip_tcp(ptr noundef %0, ptr noundef %1, ptr noundef %2, ptr readnone captures(none) %3) #0 {
  %5 = tail call zeroext i8 @tvb_get_uint8(ptr noundef %0, i32 noundef 0)
  %6 = icmp ugt i8 %5, -9
  br i1 %6, label %7, label %11

7:                                                ; preds = %4
  %8 = load ptr, ptr @sigcomp_handle, align 8
  %9 = tail call i32 @call_dissector(ptr noundef %8, ptr noundef %0, ptr noundef %1, ptr noundef %2)
  %10 = tail call i32 @tvb_reported_length(ptr noundef %0)
  br label %.loopexit

11:                                               ; preds = %4
  %12 = tail call i32 @tvb_reported_length(ptr noundef %0)
  %13 = icmp eq i32 %12, 1
  br i1 %13, label %14, label %20

14:                                               ; preds = %11
  %15 = load ptr, ptr @g_ascii_table, align 8
  %16 = zext i8 %5 to i64
  %17 = getelementptr i16, ptr %15, i64 %16
  %18 = load i16, ptr %17, align 2
  %19 = and i16 %18, 64
  %.not = icmp eq i16 %19, 0
  br i1 %.not, label %.loopexit, label %.thread

20:                                               ; preds = %11
  %21 = icmp slt i32 %12, 1500
  br i1 %21, label %.thread, label %27

.thread:                                          ; preds = %14, %20
  %22 = tail call i32 @tvb_find_line_end(ptr noundef %0, i32 noundef 0, i32 noundef %12, ptr noundef null, i1 noundef zeroext true)
  %23 = icmp eq i32 %22, -1
  br i1 %23, label %24, label %27

24:                                               ; preds = %.thread
  %25 = getelementptr inbounds nuw i8, ptr %1, i64 332
  store i32 0, ptr %25, align 4
  %26 = getelementptr inbounds nuw i8, ptr %1, i64 336
  store i32 268435455, ptr %26, align 8
  br label %.loopexit

27:                                               ; preds = %.thread, %20
  %28 = tail call fastcc i32 @dissect_sip_common(ptr noundef %0, i32 noundef 0, i32 noundef %12, ptr noundef %1, ptr noundef %2, i1 noundef zeroext true, i1 noundef zeroext true)
  %29 = icmp sgt i32 %28, 0
  %30 = sub i32 %12, %28
  %31 = icmp sgt i32 %30, 0
  %or.cond = and i1 %29, %31
  br i1 %or.cond, label %.lr.ph, label %.loopexit

.lr.ph:                                           ; preds = %27, %42
  %.057 = phi i32 [ %44, %42 ], [ %30, %27 ]
  %.04956 = phi i32 [ %43, %42 ], [ %28, %27 ]
  %32 = icmp samesign ult i32 %.057, 1500
  br i1 %32, label %33, label %39

33:                                               ; preds = %.lr.ph
  %34 = tail call i32 @tvb_find_line_end(ptr noundef %0, i32 noundef %.04956, i32 noundef %.057, ptr noundef null, i1 noundef zeroext true)
  %35 = icmp eq i32 %34, -1
  br i1 %35, label %36, label %39

36:                                               ; preds = %33
  %37 = getelementptr inbounds nuw i8, ptr %1, i64 332
  store i32 %.04956, ptr %37, align 4
  %38 = getelementptr inbounds nuw i8, ptr %1, i64 336
  store i32 268435455, ptr %38, align 8
  br label %.loopexit

39:                                               ; preds = %33, %.lr.ph
  %40 = tail call fastcc i32 @dissect_sip_common(ptr noundef %0, i32 noundef %.04956, i32 noundef %.057, ptr noundef %1, ptr noundef %2, i1 noundef zeroext true, i1 noundef zeroext true)
  %41 = icmp slt i32 %40, 1
  br i1 %41, label %.loopexit, label %42

42:                                               ; preds = %39
  %43 = add i32 %40, %.04956
  %44 = sub nsw i32 %.057, %40
  %45 = icmp sgt i32 %44, 0
  br i1 %45, label %.lr.ph, label %.loopexit, !llvm.loop !15

.loopexit:                                        ; preds = %39, %42, %27, %14, %36, %24, %7
  %.050 = phi i32 [ %10, %7 ], [ -1, %24 ], [ -1, %36 ], [ 0, %14 ], [ %28, %27 ], [ %40, %39 ], [ %43, %42 ]
  ret i32 %.050
}